; Function Attrs: nounwind uwtable
define range(i32 0, 2) i32 @wolfSSL_DupSession(ptr noundef captures(address) %0, ptr noundef captures(address) %1, i32 noundef %2) local_unnamed_addr #0 {
  %4 = tail call ptr @ClientSessionToSession(ptr noundef %0)
  %5 = tail call ptr @ClientSessionToSession(ptr noundef %1)
  %6 = icmp eq ptr %4, null
  %7 = icmp eq ptr %5, null
  %or.cond.i = select i1 %6, i1 true, i1 %7
  %8 = icmp eq ptr %4, %5
  %or.cond14.i = select i1 %or.cond.i, i1 true, i1 %8
  br i1 %or.cond14.i, label %wolfSSL_DupSessionEx.exit, label %9

9:                                                ; preds = %3
  %10 = getelementptr inbounds nuw i8, ptr %5, i64 104
  %11 = getelementptr inbounds nuw i8, ptr %4, i64 104
  tail call void @llvm.memcpy.p0.p0.i64(ptr noundef nonnull align 1 dereferenceable(128) %10, ptr noundef nonnull align 1 dereferenceable(128) %11, i64 128, i1 false)
  %12 = load i32, ptr %5, align 8, !tbaa !84
  %.not.i = icmp eq i32 %12, 2
  br i1 %.not.i, label %wolfSSL_DupSessionEx.exit, label %13

13:                                               ; preds = %9
  %14 = getelementptr inbounds nuw i8, ptr %5, i64 4
  store i32 -1, ptr %14, align 4, !tbaa !85
  br label %wolfSSL_DupSessionEx.exit

wolfSSL_DupSessionEx.exit:                        ; preds = %3, %9, %13
  %.0.i = phi i32 [ 0, %3 ], [ 1, %13 ], [ 1, %9 ]
  ret i32 %.0.i
}